; Function Attrs: mustprogress nounwind uwtable
define void @_ZN5Ipopt16StdInterfaceTNLPD2Ev(ptr nocapture noundef nonnull align 8 dereferenceable(264) %0) unnamed_addr #3 align 2 personality ptr @__gxx_personality_v0 {
  store ptr getelementptr inbounds ({ [22 x ptr] }, ptr @_ZTVN5Ipopt16StdInterfaceTNLPE, i64 0, i32 0, i64 2), ptr %0, align 8
  %2 = getelementptr inbounds i8, ptr %0, i64 192
  %3 = load ptr, ptr %2, align 8
  %4 = icmp eq ptr %3, null
  br i1 %4, label %6, label %5

5:                                                ; preds = %1
  tail call void @_ZdaPv(ptr noundef nonnull %3) #14
  br label %6

6:                                                ; preds = %5, %1
  %7 = getelementptr inbounds i8, ptr %0, i64 176
  %8 = load ptr, ptr %7, align 8
  %9 = icmp eq ptr %8, null
  br i1 %9, label %11, label %10

10:                                               ; preds = %6
  tail call void @_ZdaPv(ptr noundef nonnull %8) #14
  br label %11

11:                                               ; preds = %10, %6
  %12 = getelementptr inbounds i8, ptr %0, i64 184
  %13 = load ptr, ptr %12, align 8
  %14 = icmp eq ptr %13, null
  br i1 %14, label %16, label %15

15:                                               ; preds = %11
  tail call void @_ZdaPv(ptr noundef nonnull %13) #14
  br label %16

16:                                               ; preds = %15, %11
  %17 = getelementptr inbounds i8, ptr %0, i64 16
  %18 = load ptr, ptr %17, align 8
  %.not.i.i = icmp eq ptr %18, null
  br i1 %.not.i.i, label %_ZN5Ipopt8SmartPtrIKNS_10JournalistEED2Ev.exit, label %19

19:                                               ; preds = %16
  %20 = getelementptr inbounds i8, ptr %18, i64 8
  %21 = load i32, ptr %20, align 8
  %22 = add nsw i32 %21, -1
  store i32 %22, ptr %20, align 8
  %23 = load ptr, ptr %17, align 8
  %24 = getelementptr inbounds i8, ptr %23, i64 8
  %25 = load i32, ptr %24, align 8
  %26 = icmp eq i32 %25, 0
  br i1 %26, label %27, label %_ZN5Ipopt8SmartPtrIKNS_10JournalistEED2Ev.exit

27:                                               ; preds = %19
  %28 = load ptr, ptr %23, align 8
  %29 = getelementptr inbounds i8, ptr %28, i64 8
  %30 = load ptr, ptr %29, align 8
  tail call void %30(ptr noundef nonnull align 8 dereferenceable(40) %23) #11
  br label %_ZN5Ipopt8SmartPtrIKNS_10JournalistEED2Ev.exit

_ZN5Ipopt8SmartPtrIKNS_10JournalistEED2Ev.exit:   ; preds = %16, %19, %27
  store ptr getelementptr inbounds ({ [4 x ptr] }, ptr @_ZTVN5Ipopt16ReferencedObjectE, i64 0, i32 0, i64 2), ptr %0, align 8
  ret void
}